target datalayout = "e-m:e-p270:32:32-p271:32:32-p272:64:64-i64:64-i128:128-f80:128-n8:16:32:64-S128"
target triple = "x86_64-pc-linux-gnu"

%struct.evp_test_st = type { %struct.stanza_st, ptr, i32, ptr, ptr, ptr, ptr, ptr, ptr, i32 }
%struct.stanza_st = type { ptr, ptr, i32, i32, i32, i32, i32, i32, [150 x %struct.pair_st], ptr, [32768 x i8] }
%struct.pair_st = type { ptr, ptr }

@.str.29 = private unnamed_addr constant [27 x i8] c"../openssl/test/evp_test.c\00", align 1
@.str.134 = private unnamed_addr constant [27 x i8] c"skipping, '%s' is disabled\00", align 1
@.str.139 = private unnamed_addr constant [4 x i8] c"RC5\00", align 1
@.str.215 = private unnamed_addr constant [4 x i8] c"MD2\00", align 1
@.str.266 = private unnamed_addr constant [31 x i8] c"tmpval = OPENSSL_strdup(value)\00", align 1
@.str.267 = private unnamed_addr constant [18 x i8] c"PKEY_CTRL_INVALID\00", align 1
@.str.268 = private unnamed_addr constant [16 x i8] c"PKEY_CTRL_ERROR\00", align 1

; Function Attrs: nounwind uwtable
define internal i32 @is_cipher_disabled(ptr noundef %0) #0 {
  %2 = alloca i32, align 4
  %3 = alloca ptr, align 8
  store ptr %0, ptr %3, align 8, !tbaa !4
  %4 = load ptr, ptr %3, align 8, !tbaa !4
  %5 = call i32 @OPENSSL_strncasecmp(ptr noundef %4, ptr noundef @.str.139, i64 noundef 3)
  %6 = icmp eq i32 %5, 0
  br i1 %6, label %7, label %8

7:                                                ; preds = %1
  store i32 1, ptr %2, align 4
  br label %9

8:                                                ; preds = %1
  store i32 0, ptr %2, align 4
  br label %9

9:                                                ; preds = %8, %7
  %10 = load i32, ptr %2, align 4
  ret i32 %10
}

; Function Attrs: nounwind uwtable
define internal i32 @is_digest_disabled(ptr noundef %0) #0 {
  %2 = alloca i32, align 4
  %3 = alloca ptr, align 8
  store ptr %0, ptr %3, align 8, !tbaa !4
  %4 = load ptr, ptr %3, align 8, !tbaa !4
  %5 = call i32 @OPENSSL_strcasecmp(ptr noundef %4, ptr noundef @.str.215)
  %6 = icmp eq i32 %5, 0
  br i1 %6, label %7, label %8

7:                                                ; preds = %1
  store i32 1, ptr %2, align 4
  br label %9

8:                                                ; preds = %1
  store i32 0, ptr %2, align 4
  br label %9

9:                                                ; preds = %8, %7
  %10 = load i32, ptr %2, align 4
  ret i32 %10
}

; Function Attrs: nounwind uwtable
define internal i32 @pkey_test_ctrl(ptr noundef %0, ptr noundef %1, ptr noundef %2) #0 {
  %4 = alloca i32, align 4
  %5 = alloca ptr, align 8
  %6 = alloca ptr, align 8
  %7 = alloca ptr, align 8
  %8 = alloca i32, align 4
  %9 = alloca ptr, align 8
  %10 = alloca ptr, align 8
  %11 = alloca i32, align 4
  store ptr %0, ptr %5, align 8, !tbaa !15
  store ptr %1, ptr %6, align 8, !tbaa !229
  store ptr %2, ptr %7, align 8, !tbaa !4
  call void @llvm.lifetime.start.p0(i64 4, ptr %8) #10
  store i32 0, ptr %8, align 4, !tbaa !9
  call void @llvm.lifetime.start.p0(i64 8, ptr %9) #10
  call void @llvm.lifetime.start.p0(i64 8, ptr %10) #10
  %12 = load ptr, ptr %7, align 8, !tbaa !4
  %13 = call noalias ptr @CRYPTO_strdup(ptr noundef %12, ptr noundef @.str.29, i32 noundef 2582)
  store ptr %13, ptr %10, align 8, !tbaa !4
  %14 = call i32 @test_ptr(ptr noundef @.str.29, i32 noundef 2582, ptr noundef @.str.266, ptr noundef %13)
  %15 = icmp ne i32 %14, 0
  br i1 %15, label %17, label %16

16:                                               ; preds = %3
  store i32 0, ptr %4, align 4
  store i32 1, ptr %11, align 4
  br label %63

17:                                               ; preds = %3
  %18 = load ptr, ptr %10, align 8, !tbaa !4
  %19 = call ptr @strchr(ptr noundef %18, i32 noundef 58) #11
  store ptr %19, ptr %9, align 8, !tbaa !4
  %20 = load ptr, ptr %9, align 8, !tbaa !4
  %21 = icmp ne ptr %20, null
  br i1 %21, label %22, label %29

22:                                               ; preds = %17
  %23 = load ptr, ptr %9, align 8, !tbaa !4
  %24 = getelementptr inbounds nuw i8, ptr %23, i32 1
  store ptr %24, ptr %9, align 8, !tbaa !4
  store i8 0, ptr %23, align 1, !tbaa !46
  %25 = load ptr, ptr %6, align 8, !tbaa !229
  %26 = load ptr, ptr %10, align 8, !tbaa !4
  %27 = load ptr, ptr %9, align 8, !tbaa !4
  %28 = call i32 @EVP_PKEY_CTX_ctrl_str(ptr noundef %25, ptr noundef %26, ptr noundef %27)
  store i32 %28, ptr %8, align 4, !tbaa !9
  br label %29

29:                                               ; preds = %22, %17
  %30 = load i32, ptr %8, align 4, !tbaa !9
  %31 = icmp eq i32 %30, -2
  br i1 %31, label %32, label %35

32:                                               ; preds = %29
  %33 = load ptr, ptr %5, align 8, !tbaa !15
  %34 = getelementptr inbounds nuw %struct.evp_test_st, ptr %33, i32 0, i32 4
  store ptr @.str.267, ptr %34, align 8, !tbaa !63
  store i32 1, ptr %8, align 4, !tbaa !9
  br label %58

35:                                               ; preds = %29
  %36 = load ptr, ptr %9, align 8, !tbaa !4
  %37 = icmp ne ptr %36, null
  br i1 %37, label %38, label %57

38:                                               ; preds = %35
  %39 = load i32, ptr %8, align 4, !tbaa !9
  %40 = icmp sle i32 %39, 0
  br i1 %40, label %41, label %57

41:                                               ; preds = %38
  %42 = load ptr, ptr %9, align 8, !tbaa !4
  %43 = call i32 @is_digest_disabled(ptr noundef %42)
  %44 = icmp ne i32 %43, 0
  br i1 %44, label %49, label %45

45:                                               ; preds = %41
  %46 = load ptr, ptr %9, align 8, !tbaa !4
  %47 = call i32 @is_cipher_disabled(ptr noundef %46)
  %48 = icmp ne i32 %47, 0
  br i1 %48, label %49, label %53

49:                                               ; preds = %45, %41
  %50 = load ptr, ptr %9, align 8, !tbaa !4
  call void (ptr, i32, ptr, ...) @test_info(ptr noundef @.str.29, i32 noundef 2594, ptr noundef @.str.134, ptr noundef %50)
  %51 = load ptr, ptr %5, align 8, !tbaa !15
  %52 = getelementptr inbounds nuw %struct.evp_test_st, ptr %51, i32 0, i32 2
  store i32 1, ptr %52, align 8, !tbaa !24
  store i32 1, ptr %8, align 4, !tbaa !9
  br label %56

53:                                               ; preds = %45
  %54 = load ptr, ptr %5, align 8, !tbaa !15
  %55 = getelementptr inbounds nuw %struct.evp_test_st, ptr %54, i32 0, i32 4
  store ptr @.str.268, ptr %55, align 8, !tbaa !63
  store i32 1, ptr %8, align 4, !tbaa !9
  br label %56

56:                                               ; preds = %53, %49
  br label %57

57:                                               ; preds = %56, %38, %35
  br label %58

58:                                               ; preds = %57, %32
  %59 = load ptr, ptr %10, align 8, !tbaa !4
  call void @CRYPTO_free(ptr noundef %59, ptr noundef @.str.29, i32 noundef 2602)
  %60 = load i32, ptr %8, align 4, !tbaa !9
  %61 = icmp sgt i32 %60, 0
  %62 = zext i1 %61 to i32
  store i32 %62, ptr %4, align 4
  store i32 1, ptr %11, align 4
  br label %63

63:                                               ; preds = %58, %16
  call void @llvm.lifetime.end.p0(i64 8, ptr %10) #10
  call void @llvm.lifetime.end.p0(i64 8, ptr %9) #10
  call void @llvm.lifetime.end.p0(i64 4, ptr %8) #10
  %64 = load i32, ptr %4, align 4
  ret i32 %64
}