; Function Attrs: nounwind uwtable
define internal fastcc range(i32 0, 2) i32 @pkey_test_ctrl(ptr noundef writeonly captures(none) %0, ptr noundef %1, ptr noundef %2) unnamed_addr #1 {
  %4 = tail call noalias ptr @CRYPTO_strdup(ptr noundef %2, ptr noundef nonnull @.str.29, i32 noundef 2582) #10
  %5 = tail call i32 @test_ptr(ptr noundef nonnull @.str.29, i32 noundef 2582, ptr noundef nonnull @.str.266, ptr noundef %4) #10
  %.not = icmp eq i32 %5, 0
  br i1 %.not, label %25, label %6

6:                                                ; preds = %3
  %7 = tail call ptr @strchr(ptr noundef nonnull dereferenceable(1) %4, i32 noundef 58) #11
  %.not23 = icmp ne ptr %7, null
  br i1 %.not23, label %8, label %.thread31

8:                                                ; preds = %6
  %9 = getelementptr inbounds nuw i8, ptr %7, i64 1
  store i8 0, ptr %7, align 1, !tbaa !34
  %10 = tail call i32 @EVP_PKEY_CTX_ctrl_str(ptr noundef %1, ptr noundef nonnull %4, ptr noundef nonnull %9) #10
  %11 = icmp eq i32 %10, -2
  br i1 %11, label %12, label %14

12:                                               ; preds = %8
  %13 = getelementptr inbounds nuw i8, ptr %0, i64 35240
  store ptr @.str.267, ptr %13, align 8, !tbaa !64
  br label %.thread31

14:                                               ; preds = %8
  %15 = icmp slt i32 %10, 1
  br i1 %15, label %16, label %.thread31

16:                                               ; preds = %14
  %17 = tail call i32 @OPENSSL_strcasecmp(ptr noundef nonnull %9, ptr noundef nonnull @.str.215) #10
  %.not35 = icmp eq i32 %17, 0
  br i1 %.not35, label %20, label %18

18:                                               ; preds = %16
  %19 = tail call i32 @OPENSSL_strncasecmp(ptr noundef nonnull %9, ptr noundef nonnull @.str.139, i64 noundef 3) #10
  %.not36 = icmp eq i32 %19, 0
  br i1 %.not36, label %20, label %22

20:                                               ; preds = %18, %16
  tail call void (ptr, i32, ptr, ...) @test_info(ptr noundef nonnull @.str.29, i32 noundef 2594, ptr noundef nonnull @.str.134, ptr noundef nonnull %9) #10
  %21 = getelementptr inbounds nuw i8, ptr %0, i64 35224
  store i32 1, ptr %21, align 8, !tbaa !26
  br label %.thread31

22:                                               ; preds = %18
  %23 = getelementptr inbounds nuw i8, ptr %0, i64 35240
  store ptr @.str.268, ptr %23, align 8, !tbaa !64
  br label %.thread31

.thread31:                                        ; preds = %6, %14, %22, %20, %12
  tail call void @CRYPTO_free(ptr noundef nonnull %4, ptr noundef nonnull @.str.29, i32 noundef 2602) #10
  %24 = zext i1 %.not23 to i32
  br label %25

25:                                               ; preds = %3, %.thread31
  %.0 = phi i32 [ %24, %.thread31 ], [ 0, %3 ]
  ret i32 %.0
}